target datalayout = "e-m:e-p270:32:32-p271:32:32-p272:64:64-i64:64-i128:128-f80:128-n8:16:32:64-S128"
target triple = "x86_64-pc-linux-gnu"

%"class.llvm::SmallVectorBase" = type { ptr, i32, i32 }
%"class.clang::CodeGen::RawAddress" = type { %"class.llvm::PointerIntPair", ptr, %"class.clang::CharUnits" }
%"class.llvm::PointerIntPair" = type { %"struct.llvm::detail::PunnedPointer" }
%"struct.llvm::detail::PunnedPointer" = type { [8 x i8] }
%"class.clang::CharUnits" = type { i64 }
%"class.clang::CodeGen::CodeGenFunction" = type { %"struct.clang::CodeGen::CodeGenTypeCache", ptr, ptr, ptr, %"class.clang::CodeGen::LoopInfoStack", %"class.clang::CodeGen::CGBuilderTy", %"class.clang::CodeGen::VarBypassDetector", %"class.llvm::SmallVector.42", %"class.llvm::SmallVector.47", %"class.llvm::SmallVector.52", i32, ptr, ptr, ptr, %"class.clang::QualType", ptr, %"class.llvm::SmallVector.57", %"struct.clang::CodeGen::CodeGenFunction::CGCoroInfo", %"struct.clang::CodeGen::CodeGenFunction::AwaitSuspendWrapperInfo", %"class.clang::GlobalDecl", %"class.clang::CodeGen::EHScopeStack::stable_iterator", %"struct.clang::CodeGen::CodeGenFunction::JumpDest", %"class.clang::CodeGen::Address", %"class.clang::CodeGen::Address", ptr, %"class.llvm::AssertingVH", %"class.llvm::AssertingVH", ptr, %"struct.clang::SanitizerSet", i8, i8, i8, i8, [4 x i8], %"class.clang::GlobalDecl", i8, i8, i8, i8, i8, i8, ptr, ptr, ptr, %"class.llvm::DenseMap.66", ptr, %"class.llvm::DenseMap.69", %"class.clang::CodeGen::EHScopeStack", %"class.llvm::SmallVector.77", %"class.llvm::SmallVector.83", %"class.llvm::SmallVector.88", ptr, %"class.clang::CodeGen::RawAddress", i32, ptr, ptr, ptr, %"class.llvm::SmallVector.93", ptr, ptr, ptr, ptr, ptr, ptr, i8, %"class.clang::FPOptions", %"class.llvm::SmallVector.98", %"class.clang::CodeGen::EHScopeStack::stable_iterator", ptr, i32, i8, i8, ptr, %"class.llvm::DenseMap.103", %"class.llvm::DenseMap.106", %"class.llvm::SmallDenseMap", %"class.llvm::DenseMap.110", %"class.llvm::DenseMap.113", %"class.llvm::SmallVector.116", %"class.clang::CodeGen::CodeGenFunction::OpenMPCancelExitStack", %"class.clang::CodeGen::CodeGenPGO", %"class.clang::CodeGen::Address", ptr, ptr, ptr, ptr, %"class.llvm::DenseMap.162", %"class.llvm::DenseMap.165", %"class.llvm::DenseMap.168", ptr, i32, i32, %"class.clang::SourceLocation", %"class.clang::CurrentSourceLocExprScope", ptr, ptr, ptr, %"class.clang::CharUnits", %"class.clang::CharUnits", %"class.clang::CodeGen::Address", ptr, %"class.clang::CodeGen::CallArgList", ptr, ptr, ptr, ptr, %"class.clang::SourceLocation", [4 x i8], %"class.llvm::DenseMap.186", ptr, %"class.clang::CodeGen::Address", ptr, ptr, %"class.llvm::SmallVector.189", %"class.llvm::MapVector", i32, i8, ptr, %"class.llvm::SmallVector.202" }
%"struct.clang::CodeGen::CodeGenTypeCache" = type { ptr, ptr, ptr, ptr, ptr, ptr, ptr, ptr, ptr, ptr, ptr, %union.anon.9, %union.anon.10, %union.anon.11, %union.anon.12, ptr, %union.anon.13, i8, %union.anon.14, %union.anon.15, i32, i32 }
%union.anon.9 = type { ptr }
%union.anon.10 = type { ptr }
%union.anon.11 = type { ptr }
%union.anon.12 = type { ptr }
%union.anon.13 = type { i8 }
%union.anon.14 = type { i8 }
%union.anon.15 = type { i8 }
%"class.clang::CodeGen::LoopInfoStack" = type { %"struct.clang::CodeGen::LoopAttributes", %"class.llvm::SmallVector.16" }
%"struct.clang::CodeGen::LoopAttributes" = type <{ i8, [3 x i8], i32, i32, i32, i32, i32, i32, i32, i32, i32, i32, i8, [3 x i8], i32, i32, i8, [3 x i8] }>
%"class.llvm::SmallVector.16" = type { %"class.llvm::SmallVectorImpl.17", %"struct.llvm::SmallVectorStorage.20" }
%"class.llvm::SmallVectorImpl.17" = type { %"class.llvm::SmallVectorTemplateBase.18" }
%"class.llvm::SmallVectorTemplateBase.18" = type { %"class.llvm::SmallVectorTemplateCommon.19" }
%"class.llvm::SmallVectorTemplateCommon.19" = type { %"class.llvm::SmallVectorBase" }
%"struct.llvm::SmallVectorStorage.20" = type { [32 x i8] }
%"class.clang::CodeGen::CGBuilderTy" = type { %"class.llvm::IRBuilder", ptr }
%"class.llvm::IRBuilder" = type { %"class.llvm::IRBuilderBase", %"class.llvm::ConstantFolder", %"class.clang::CodeGen::CGBuilderInserter" }
%"class.llvm::IRBuilderBase" = type { %"class.llvm::SmallVector.21", ptr, %"class.llvm::ilist_iterator_w_bits", ptr, ptr, ptr, ptr, %"class.llvm::FastMathFlags", i8, i8, i8, %"class.llvm::ArrayRef" }
%"class.llvm::SmallVector.21" = type { %"class.llvm::SmallVectorImpl.22", %"struct.llvm::SmallVectorStorage.25" }
%"class.llvm::SmallVectorImpl.22" = type { %"class.llvm::SmallVectorTemplateBase.23" }
%"class.llvm::SmallVectorTemplateBase.23" = type { %"class.llvm::SmallVectorTemplateCommon.24" }
%"class.llvm::SmallVectorTemplateCommon.24" = type { %"class.llvm::SmallVectorBase" }
%"struct.llvm::SmallVectorStorage.25" = type { [32 x i8] }
%"class.llvm::ilist_iterator_w_bits" = type <{ ptr, i8, i8, [6 x i8] }>
%"class.llvm::FastMathFlags" = type { i32 }
%"class.llvm::ArrayRef" = type { ptr, i64 }
%"class.llvm::ConstantFolder" = type { %"class.llvm::IRBuilderFolder" }
%"class.llvm::IRBuilderFolder" = type { ptr }
%"class.clang::CodeGen::CGBuilderInserter" = type { %"class.llvm::IRBuilderDefaultInserter", ptr }
%"class.llvm::IRBuilderDefaultInserter" = type { ptr }
%"class.clang::CodeGen::VarBypassDetector" = type <{ %"class.llvm::SmallVector.26", %"class.llvm::SmallVector.31", %"class.llvm::DenseMap.36", %"class.llvm::DenseSet", i8, [7 x i8] }>
%"class.llvm::SmallVector.26" = type { %"class.llvm::SmallVectorImpl.27", %"struct.llvm::SmallVectorStorage.30" }
%"class.llvm::SmallVectorImpl.27" = type { %"class.llvm::SmallVectorTemplateBase.28" }
%"class.llvm::SmallVectorTemplateBase.28" = type { %"class.llvm::SmallVectorTemplateCommon.29" }
%"class.llvm::SmallVectorTemplateCommon.29" = type { %"class.llvm::SmallVectorBase" }
%"struct.llvm::SmallVectorStorage.30" = type { [768 x i8] }
%"class.llvm::SmallVector.31" = type { %"class.llvm::SmallVectorImpl.32", %"struct.llvm::SmallVectorStorage.35" }
%"class.llvm::SmallVectorImpl.32" = type { %"class.llvm::SmallVectorTemplateBase.33" }
%"class.llvm::SmallVectorTemplateBase.33" = type { %"class.llvm::SmallVectorTemplateCommon.34" }
%"class.llvm::SmallVectorTemplateCommon.34" = type { %"class.llvm::SmallVectorBase" }
%"struct.llvm::SmallVectorStorage.35" = type { [256 x i8] }
%"class.llvm::DenseMap.36" = type <{ ptr, i32, i32, i32, [4 x i8] }>
%"class.llvm::DenseSet" = type { %"class.llvm::detail::DenseSetImpl" }
%"class.llvm::detail::DenseSetImpl" = type { %"class.llvm::DenseMap.39" }
%"class.llvm::DenseMap.39" = type <{ ptr, i32, i32, i32, [4 x i8] }>
%"class.llvm::SmallVector.42" = type { %"class.llvm::SmallVectorImpl.43", %"struct.llvm::SmallVectorStorage.46" }
%"class.llvm::SmallVectorImpl.43" = type { %"class.llvm::SmallVectorTemplateBase.44" }
%"class.llvm::SmallVectorTemplateBase.44" = type { %"class.llvm::SmallVectorTemplateCommon.45" }
%"class.llvm::SmallVectorTemplateCommon.45" = type { %"class.llvm::SmallVectorBase" }
%"struct.llvm::SmallVectorStorage.46" = type { [32 x i8] }
%"class.llvm::SmallVector.47" = type { %"class.llvm::SmallVectorImpl.48", %"struct.llvm::SmallVectorStorage.51" }
%"class.llvm::SmallVectorImpl.48" = type { %"class.llvm::SmallVectorTemplateBase.49" }
%"class.llvm::SmallVectorTemplateBase.49" = type { %"class.llvm::SmallVectorTemplateCommon.50" }
%"class.llvm::SmallVectorTemplateCommon.50" = type { %"class.llvm::SmallVectorBase" }
%"struct.llvm::SmallVectorStorage.51" = type { [128 x i8] }
%"class.llvm::SmallVector.52" = type { %"class.llvm::SmallVectorImpl.53", %"struct.llvm::SmallVectorStorage.56" }
%"class.llvm::SmallVectorImpl.53" = type { %"class.llvm::SmallVectorTemplateBase.54" }
%"class.llvm::SmallVectorTemplateBase.54" = type { %"class.llvm::SmallVectorTemplateCommon.55" }
%"class.llvm::SmallVectorTemplateCommon.55" = type { %"class.llvm::SmallVectorBase" }
%"struct.llvm::SmallVectorStorage.56" = type { [32 x i8] }
%"class.clang::QualType" = type { %"class.llvm::PointerIntPair.0" }
%"class.llvm::PointerIntPair.0" = type { %"struct.llvm::detail::PunnedPointer.1" }
%"struct.llvm::detail::PunnedPointer.1" = type { [8 x i8] }
%"class.llvm::SmallVector.57" = type { %"class.llvm::SmallVectorImpl.58", %"struct.llvm::SmallVectorStorage.61" }
%"class.llvm::SmallVectorImpl.58" = type { %"class.llvm::SmallVectorTemplateBase.59" }
%"class.llvm::SmallVectorTemplateBase.59" = type { %"class.llvm::SmallVectorTemplateCommon.60" }
%"class.llvm::SmallVectorTemplateCommon.60" = type { %"class.llvm::SmallVectorBase" }
%"struct.llvm::SmallVectorStorage.61" = type { [32 x i8] }
%"struct.clang::CodeGen::CodeGenFunction::CGCoroInfo" = type <{ %"class.std::unique_ptr", i8, [7 x i8] }>
%"class.std::unique_ptr" = type { %"struct.std::__uniq_ptr_data" }
%"struct.std::__uniq_ptr_data" = type { %"class.std::__uniq_ptr_impl" }
%"class.std::__uniq_ptr_impl" = type { %"class.std::tuple" }
%"class.std::tuple" = type { %"struct.std::_Tuple_impl" }
%"struct.std::_Tuple_impl" = type { %"struct.std::_Head_base.63" }
%"struct.std::_Head_base.63" = type { ptr }
%"struct.clang::CodeGen::CodeGenFunction::AwaitSuspendWrapperInfo" = type { ptr }
%"struct.clang::CodeGen::CodeGenFunction::JumpDest" = type <{ ptr, %"class.clang::CodeGen::EHScopeStack::stable_iterator", i32, [4 x i8] }>
%"class.llvm::AssertingVH" = type { ptr }
%"struct.clang::SanitizerSet" = type { %"class.clang::SanitizerMask" }
%"class.clang::SanitizerMask" = type { [2 x i64] }
%"class.clang::GlobalDecl" = type { %"class.llvm::PointerIntPair.64", i32, [4 x i8] }
%"class.llvm::PointerIntPair.64" = type { %"struct.llvm::detail::PunnedPointer.65" }
%"struct.llvm::detail::PunnedPointer.65" = type { [8 x i8] }
%"class.llvm::DenseMap.66" = type <{ ptr, i32, i32, i32, [4 x i8] }>
%"class.llvm::DenseMap.69" = type <{ ptr, i32, i32, i32, [4 x i8] }>
%"class.clang::CodeGen::EHScopeStack" = type { ptr, ptr, ptr, %"class.clang::CodeGen::EHScopeStack::stable_iterator", %"class.clang::CodeGen::EHScopeStack::stable_iterator", ptr, %"class.llvm::SmallVector.72" }
%"class.llvm::SmallVector.72" = type { %"class.llvm::SmallVectorImpl.73", %"struct.llvm::SmallVectorStorage.76" }
%"class.llvm::SmallVectorImpl.73" = type { %"class.llvm::SmallVectorTemplateBase.74" }
%"class.llvm::SmallVectorTemplateBase.74" = type { %"class.llvm::SmallVectorTemplateCommon.75" }
%"class.llvm::SmallVectorTemplateCommon.75" = type { %"class.llvm::SmallVectorBase" }
%"struct.llvm::SmallVectorStorage.76" = type { [256 x i8] }
%"class.llvm::SmallVector.77" = type { %"class.llvm::SmallVectorImpl.78", %"struct.llvm::SmallVectorStorage.82" }
%"class.llvm::SmallVectorImpl.78" = type { %"class.llvm::SmallVectorTemplateBase.79" }
%"class.llvm::SmallVectorTemplateBase.79" = type { %"class.llvm::SmallVectorTemplateCommon.80" }
%"class.llvm::SmallVectorTemplateCommon.80" = type { %"class.llvm::SmallVectorBase.81" }
%"class.llvm::SmallVectorBase.81" = type { ptr, i64, i64 }
%"struct.llvm::SmallVectorStorage.82" = type { [256 x i8] }
%"class.llvm::SmallVector.83" = type { %"class.llvm::SmallVectorImpl.84", %"struct.llvm::SmallVectorStorage.87" }
%"class.llvm::SmallVectorImpl.84" = type { %"class.llvm::SmallVectorTemplateBase.85" }
%"class.llvm::SmallVectorTemplateBase.85" = type { %"class.llvm::SmallVectorTemplateCommon.86" }
%"class.llvm::SmallVectorTemplateCommon.86" = type { %"class.llvm::SmallVectorBase" }
%"struct.llvm::SmallVectorStorage.87" = type { [48 x i8] }
%"class.llvm::SmallVector.88" = type { %"class.llvm::SmallVectorImpl.89", %"struct.llvm::SmallVectorStorage.92" }
%"class.llvm::SmallVectorImpl.89" = type { %"class.llvm::SmallVectorTemplateBase.90" }
%"class.llvm::SmallVectorTemplateBase.90" = type { %"class.llvm::SmallVectorTemplateCommon.91" }
%"class.llvm::SmallVectorTemplateCommon.91" = type { %"class.llvm::SmallVectorBase" }
%"struct.llvm::SmallVectorStorage.92" = type { [16 x i8] }
%"class.llvm::SmallVector.93" = type { %"class.llvm::SmallVectorImpl.94", %"struct.llvm::SmallVectorStorage.97" }
%"class.llvm::SmallVectorImpl.94" = type { %"class.llvm::SmallVectorTemplateBase.95" }
%"class.llvm::SmallVectorTemplateBase.95" = type { %"class.llvm::SmallVectorTemplateCommon.96" }
%"class.llvm::SmallVectorTemplateCommon.96" = type { %"class.llvm::SmallVectorBase" }
%"struct.llvm::SmallVectorStorage.97" = type { [48 x i8] }
%"class.clang::FPOptions" = type { i32 }
%"class.llvm::SmallVector.98" = type { %"class.llvm::SmallVectorImpl.99", %"struct.llvm::SmallVectorStorage.102" }
%"class.llvm::SmallVectorImpl.99" = type { %"class.llvm::SmallVectorTemplateBase.100" }
%"class.llvm::SmallVectorTemplateBase.100" = type { %"class.llvm::SmallVectorTemplateCommon.101" }
%"class.llvm::SmallVectorTemplateCommon.101" = type { %"class.llvm::SmallVectorBase" }
%"struct.llvm::SmallVectorStorage.102" = type { [64 x i8] }
%"class.clang::CodeGen::EHScopeStack::stable_iterator" = type { i64 }
%"class.llvm::DenseMap.103" = type <{ ptr, i32, i32, i32, [4 x i8] }>
%"class.llvm::DenseMap.106" = type <{ ptr, i32, i32, i32, [4 x i8] }>
%"class.llvm::SmallDenseMap" = type { i32, i32, %"struct.llvm::AlignedCharArrayUnion" }
%"struct.llvm::AlignedCharArrayUnion" = type { [32 x i8] }
%"class.llvm::DenseMap.110" = type <{ ptr, i32, i32, i32, [4 x i8] }>
%"class.llvm::DenseMap.113" = type <{ ptr, i32, i32, i32, [4 x i8] }>
%"class.llvm::SmallVector.116" = type { %"class.llvm::SmallVectorImpl.117", %"struct.llvm::SmallVectorStorage.120" }
%"class.llvm::SmallVectorImpl.117" = type { %"class.llvm::SmallVectorTemplateBase.118" }
%"class.llvm::SmallVectorTemplateBase.118" = type { %"class.llvm::SmallVectorTemplateCommon.119" }
%"class.llvm::SmallVectorTemplateCommon.119" = type { %"class.llvm::SmallVectorBase" }
%"struct.llvm::SmallVectorStorage.120" = type { [384 x i8] }
%"class.clang::CodeGen::CodeGenFunction::OpenMPCancelExitStack" = type { %"class.llvm::SmallVector.121" }
%"class.llvm::SmallVector.121" = type { %"class.llvm::SmallVectorImpl.122", %"struct.llvm::SmallVectorStorage.125" }
%"class.llvm::SmallVectorImpl.122" = type { %"class.llvm::SmallVectorTemplateBase.123" }
%"class.llvm::SmallVectorTemplateBase.123" = type { %"class.llvm::SmallVectorTemplateCommon.124" }
%"class.llvm::SmallVectorTemplateCommon.124" = type { %"class.llvm::SmallVectorBase" }
%"struct.llvm::SmallVectorStorage.125" = type { [448 x i8] }
%"class.clang::CodeGen::CodeGenPGO" = type { ptr, %"class.std::__cxx11::basic_string", ptr, %"struct.std::array", i32, i64, %"class.std::unique_ptr.127", %"class.std::unique_ptr.135", %"class.std::unique_ptr.143", %"class.std::unique_ptr.151", %"class.std::vector", i64 }
%"class.std::__cxx11::basic_string" = type { %"struct.std::__cxx11::basic_string<char>::_Alloc_hider", i64, %union.anon.126 }
%"struct.std::__cxx11::basic_string<char>::_Alloc_hider" = type { ptr }
%union.anon.126 = type { i64, [8 x i8] }
%"struct.std::array" = type { [3 x i32] }
%"class.std::unique_ptr.127" = type { %"struct.std::__uniq_ptr_data.128" }
%"struct.std::__uniq_ptr_data.128" = type { %"class.std::__uniq_ptr_impl.129" }
%"class.std::__uniq_ptr_impl.129" = type { %"class.std::tuple.130" }
%"class.std::tuple.130" = type { %"struct.std::_Tuple_impl.131" }
%"struct.std::_Tuple_impl.131" = type { %"struct.std::_Head_base.134" }
%"struct.std::_Head_base.134" = type { ptr }
%"class.std::unique_ptr.135" = type { %"struct.std::__uniq_ptr_data.136" }
%"struct.std::__uniq_ptr_data.136" = type { %"class.std::__uniq_ptr_impl.137" }
%"class.std::__uniq_ptr_impl.137" = type { %"class.std::tuple.138" }
%"class.std::tuple.138" = type { %"struct.std::_Tuple_impl.139" }
%"struct.std::_Tuple_impl.139" = type { %"struct.std::_Head_base.142" }
%"struct.std::_Head_base.142" = type { ptr }
%"class.std::unique_ptr.143" = type { %"struct.std::__uniq_ptr_data.144" }
%"struct.std::__uniq_ptr_data.144" = type { %"class.std::__uniq_ptr_impl.145" }
%"class.std::__uniq_ptr_impl.145" = type { %"class.std::tuple.146" }
%"class.std::tuple.146" = type { %"struct.std::_Tuple_impl.147" }
%"struct.std::_Tuple_impl.147" = type { %"struct.std::_Head_base.150" }
%"struct.std::_Head_base.150" = type { ptr }
%"class.std::unique_ptr.151" = type { %"struct.std::__uniq_ptr_data.152" }
%"struct.std::__uniq_ptr_data.152" = type { %"class.std::__uniq_ptr_impl.153" }
%"class.std::__uniq_ptr_impl.153" = type { %"class.std::tuple.154" }
%"class.std::tuple.154" = type { %"struct.std::_Tuple_impl.155" }
%"struct.std::_Tuple_impl.155" = type { %"struct.std::_Head_base.158" }
%"struct.std::_Head_base.158" = type { ptr }
%"class.std::vector" = type { %"struct.std::_Vector_base" }
%"struct.std::_Vector_base" = type { %"struct.std::_Vector_base<unsigned long, std::allocator<unsigned long>>::_Vector_impl" }
%"struct.std::_Vector_base<unsigned long, std::allocator<unsigned long>>::_Vector_impl" = type { %"struct.std::_Vector_base<unsigned long, std::allocator<unsigned long>>::_Vector_impl_data" }
%"struct.std::_Vector_base<unsigned long, std::allocator<unsigned long>>::_Vector_impl_data" = type { ptr, ptr, ptr }
%"class.llvm::DenseMap.162" = type <{ ptr, i32, i32, i32, [4 x i8] }>
%"class.llvm::DenseMap.165" = type <{ ptr, i32, i32, i32, [4 x i8] }>
%"class.llvm::DenseMap.168" = type <{ ptr, i32, i32, i32, [4 x i8] }>
%"class.clang::CurrentSourceLocExprScope" = type { ptr }
%"class.clang::CodeGen::CallArgList" = type { %"class.llvm::SmallVector.171", %"class.llvm::SmallVector.176", %"class.llvm::SmallVector.181", ptr }
%"class.llvm::SmallVector.171" = type { %"class.llvm::SmallVectorImpl.172", %"struct.llvm::SmallVectorStorage.175" }
%"class.llvm::SmallVectorImpl.172" = type { %"class.llvm::SmallVectorTemplateBase.173" }
%"class.llvm::SmallVectorTemplateBase.173" = type { %"class.llvm::SmallVectorTemplateCommon.174" }
%"class.llvm::SmallVectorTemplateCommon.174" = type { %"class.llvm::SmallVectorBase" }
%"struct.llvm::SmallVectorStorage.175" = type { [1216 x i8] }
%"class.llvm::SmallVector.176" = type { %"class.llvm::SmallVectorImpl.177", %"struct.llvm::SmallVectorStorage.180" }
%"class.llvm::SmallVectorImpl.177" = type { %"class.llvm::SmallVectorTemplateBase.178" }
%"class.llvm::SmallVectorTemplateBase.178" = type { %"class.llvm::SmallVectorTemplateCommon.179" }
%"class.llvm::SmallVectorTemplateCommon.179" = type { %"class.llvm::SmallVectorBase" }
%"struct.llvm::SmallVectorStorage.180" = type { [208 x i8] }
%"class.llvm::SmallVector.181" = type { %"class.llvm::SmallVectorImpl.182", %"struct.llvm::SmallVectorStorage.185" }
%"class.llvm::SmallVectorImpl.182" = type { %"class.llvm::SmallVectorTemplateBase.183" }
%"class.llvm::SmallVectorTemplateBase.183" = type { %"class.llvm::SmallVectorTemplateCommon.184" }
%"class.llvm::SmallVectorTemplateCommon.184" = type { %"class.llvm::SmallVectorBase" }
%"struct.llvm::SmallVectorStorage.185" = type { [16 x i8] }
%"class.clang::SourceLocation" = type { i32 }
%"class.llvm::DenseMap.186" = type <{ ptr, i32, i32, i32, [4 x i8] }>
%"class.clang::CodeGen::Address" = type { %"class.llvm::PointerIntPair", ptr, %"class.clang::CharUnits", %"class.clang::CodeGen::CGPointerAuthInfo", ptr }
%"class.clang::CodeGen::CGPointerAuthInfo" = type { i8, ptr }
%"class.llvm::SmallVector.189" = type { %"class.llvm::SmallVectorImpl.190", %"struct.llvm::SmallVectorStorage.193" }
%"class.llvm::SmallVectorImpl.190" = type { %"class.llvm::SmallVectorTemplateBase.191" }
%"class.llvm::SmallVectorTemplateBase.191" = type { %"class.llvm::SmallVectorTemplateCommon.192" }
%"class.llvm::SmallVectorTemplateCommon.192" = type { %"class.llvm::SmallVectorBase" }
%"struct.llvm::SmallVectorStorage.193" = type { [16 x i8] }
%"class.llvm::MapVector" = type { %"class.llvm::DenseMap.194", %"class.llvm::SmallVector.197" }
%"class.llvm::DenseMap.194" = type <{ ptr, i32, i32, i32, [4 x i8] }>
%"class.llvm::SmallVector.197" = type { %"class.llvm::SmallVectorImpl.198" }
%"class.llvm::SmallVectorImpl.198" = type { %"class.llvm::SmallVectorTemplateBase.199" }
%"class.llvm::SmallVectorTemplateBase.199" = type { %"class.llvm::SmallVectorTemplateCommon.200" }
%"class.llvm::SmallVectorTemplateCommon.200" = type { %"class.llvm::SmallVectorBase" }
%"class.llvm::SmallVector.202" = type { %"class.llvm::SmallVectorImpl.203", %"struct.llvm::SmallVectorStorage.206" }
%"class.llvm::SmallVectorImpl.203" = type { %"class.llvm::SmallVectorTemplateBase.204" }
%"class.llvm::SmallVectorTemplateBase.204" = type { %"class.llvm::SmallVectorTemplateCommon.205" }
%"class.llvm::SmallVectorTemplateCommon.205" = type { %"class.llvm::SmallVectorBase" }
%"struct.llvm::SmallVectorStorage.206" = type { [128 x i8] }
%"class.llvm::FoldingSetBase::Node" = type { ptr }
%"class.std::initializer_list.1318" = type { ptr, i64 }
%"class.(anonymous namespace)::CXXByrefHelpers" = type { %"class.clang::CodeGen::BlockByrefHelpers", %"class.clang::QualType", ptr }
%"class.clang::CodeGen::BlockByrefHelpers" = type { ptr, %"class.llvm::FoldingSetBase::Node", ptr, ptr, %"class.clang::CharUnits" }

; Function Attrs: mustprogress nounwind uwtable
define linkonce_odr hidden void @_ZN5clang7CodeGen12EHScopeStack15stable_iteratorC2El(ptr noundef nonnull align 8 dereferenceable(8) %0, i64 noundef %1) unnamed_addr #0 comdat align 2 {
  %3 = alloca ptr, align 8
  %4 = alloca i64, align 8
  store ptr %0, ptr %3, align 8
  store i64 %1, ptr %4, align 8
  %5 = load ptr, ptr %3, align 8
  %6 = getelementptr inbounds nuw %"class.clang::CodeGen::EHScopeStack::stable_iterator", ptr %5, i32 0, i32 0
  %7 = load i64, ptr %4, align 8
  store i64 %7, ptr %6, align 8
  ret void
}

; Function Attrs: mustprogress nounwind uwtable
define linkonce_odr hidden void @_ZNSt16initializer_listIPPN4llvm5ValueEEC2Ev(ptr noundef nonnull align 8 dereferenceable(16) %0) unnamed_addr #0 comdat align 2 {
  %2 = alloca ptr, align 8
  store ptr %0, ptr %2, align 8
  %3 = load ptr, ptr %2, align 8
  %4 = getelementptr inbounds nuw %"class.std::initializer_list.1318", ptr %3, i32 0, i32 0
  store ptr null, ptr %4, align 8
  %5 = getelementptr inbounds nuw %"class.std::initializer_list.1318", ptr %3, i32 0, i32 1
  store i64 0, ptr %5, align 8
  ret void
}

; Function Attrs: mustprogress nounwind uwtable
define linkonce_odr hidden i64 @_ZNK5clang7CodeGen12EHScopeStack12stable_beginEv(ptr noundef nonnull align 8 dereferenceable(320) %0) #0 comdat align 2 {
  %2 = alloca %"class.clang::CodeGen::EHScopeStack::stable_iterator", align 8
  %3 = alloca ptr, align 8
  store ptr %0, ptr %3, align 8
  %4 = load ptr, ptr %3, align 8
  %5 = getelementptr inbounds nuw %"class.clang::CodeGen::EHScopeStack", ptr %4, i32 0, i32 1
  %6 = load ptr, ptr %5, align 8
  %7 = getelementptr inbounds nuw %"class.clang::CodeGen::EHScopeStack", ptr %4, i32 0, i32 2
  %8 = load ptr, ptr %7, align 8
  %9 = ptrtoint ptr %6 to i64
  %10 = ptrtoint ptr %8 to i64
  %11 = sub i64 %9, %10
  call void @_ZN5clang7CodeGen12EHScopeStack15stable_iteratorC2El(ptr noundef nonnull align 8 dereferenceable(8) %2, i64 noundef %11)
  %12 = getelementptr inbounds nuw %"class.clang::CodeGen::EHScopeStack::stable_iterator", ptr %2, i32 0, i32 0
  %13 = load i64, ptr %12, align 8
  ret i64 %13
}

; Function Attrs: mustprogress nounwind uwtable
define internal void @_ZN12_GLOBAL__N_115CXXByrefHelpers11emitDisposeERN5clang7CodeGen15CodeGenFunctionENS2_7AddressE(ptr noundef nonnull align 8 dereferenceable(56) %0, ptr noundef nonnull align 8 dereferenceable(6488) %1, ptr noundef byval(%"class.clang::CodeGen::Address") align 8 %2) unnamed_addr #0 align 2 {
  %4 = alloca ptr, align 8
  %5 = alloca ptr, align 8
  %6 = alloca %"class.clang::CodeGen::EHScopeStack::stable_iterator", align 8
  %7 = alloca %"class.clang::QualType", align 8
  %8 = alloca %"class.clang::CodeGen::Address", align 8
  %9 = alloca %"class.clang::CodeGen::EHScopeStack::stable_iterator", align 8
  %10 = alloca %"class.std::initializer_list.1318", align 8
  store ptr %0, ptr %4, align 8
  store ptr %1, ptr %5, align 8
  %11 = load ptr, ptr %4, align 8
  %12 = load ptr, ptr %5, align 8
  %13 = getelementptr inbounds nuw %"class.clang::CodeGen::CodeGenFunction", ptr %12, i32 0, i32 47
  %14 = call i64 @_ZNK5clang7CodeGen12EHScopeStack12stable_beginEv(ptr noundef nonnull align 8 dereferenceable(320) %13)
  %15 = getelementptr inbounds nuw %"class.clang::CodeGen::EHScopeStack::stable_iterator", ptr %6, i32 0, i32 0
  store i64 %14, ptr %15, align 8
  %16 = load ptr, ptr %5, align 8
  %17 = getelementptr inbounds nuw %"class.(anonymous namespace)::CXXByrefHelpers", ptr %11, i32 0, i32 1
  call void @llvm.memcpy.p0.p0.i64(ptr align 8 %7, ptr align 8 %17, i64 8, i1 false)
  call void @llvm.memcpy.p0.p0.i64(ptr align 8 %8, ptr align 8 %2, i64 48, i1 false)
  %18 = getelementptr inbounds nuw %"class.clang::QualType", ptr %7, i32 0, i32 0
  %19 = getelementptr inbounds nuw %"class.llvm::PointerIntPair.0", ptr %18, i32 0, i32 0
  %20 = getelementptr inbounds nuw %"struct.llvm::detail::PunnedPointer.1", ptr %19, i32 0, i32 0
  %21 = load i64, ptr %20, align 8
  call void @_ZN5clang7CodeGen15CodeGenFunction21PushDestructorCleanupENS_8QualTypeENS0_7AddressE(ptr noundef nonnull align 8 dereferenceable(6488) %16, i64 %21, ptr noundef byval(%"class.clang::CodeGen::Address") align 8 %8)
  %22 = load ptr, ptr %5, align 8
  call void @llvm.memcpy.p0.p0.i64(ptr align 8 %9, ptr align 8 %6, i64 8, i1 false)
  call void @_ZNSt16initializer_listIPPN4llvm5ValueEEC2Ev(ptr noundef nonnull align 8 dereferenceable(16) %10) #14
  %23 = getelementptr inbounds nuw %"class.clang::CodeGen::EHScopeStack::stable_iterator", ptr %9, i32 0, i32 0
  %24 = load i64, ptr %23, align 8
  %25 = getelementptr inbounds nuw { ptr, i64 }, ptr %10, i32 0, i32 0
  %26 = load ptr, ptr %25, align 8
  %27 = getelementptr inbounds nuw { ptr, i64 }, ptr %10, i32 0, i32 1
  %28 = load i64, ptr %27, align 8
  call void @_ZN5clang7CodeGen15CodeGenFunction16PopCleanupBlocksENS0_12EHScopeStack15stable_iteratorESt16initializer_listIPPN4llvm5ValueEE(ptr noundef nonnull align 8 dereferenceable(6488) %22, i64 %24, ptr %26, i64 %28)
  ret void
}