; Function Attrs: mustprogress nounwind uwtable
define internal void @_ZN12_GLOBAL__N_115CXXByrefHelpers11emitDisposeERN5clang7CodeGen15CodeGenFunctionENS2_7AddressE(ptr nocapture noundef nonnull readonly align 8 dereferenceable(56) %0, ptr noundef nonnull align 8 dereferenceable(6488) %1, ptr nocapture noundef readonly byval(%"class.clang::CodeGen::Address") align 8 %2) unnamed_addr #0 align 2 {
  %4 = getelementptr inbounds i8, ptr %1, i64 2224
  %5 = load ptr, ptr %4, align 8
  %6 = getelementptr inbounds i8, ptr %1, i64 2232
  %7 = load ptr, ptr %6, align 8
  %8 = ptrtoint ptr %5 to i64
  %9 = ptrtoint ptr %7 to i64
  %10 = sub i64 %8, %9
  %11 = getelementptr inbounds nuw i8, ptr %0, i64 40
  %.sroa.01.0.copyload = load i64, ptr %11, align 8
  tail call void @_ZN5clang7CodeGen15CodeGenFunction21PushDestructorCleanupENS_8QualTypeENS0_7AddressE(ptr noundef nonnull align 8 dereferenceable(6488) %1, i64 %.sroa.01.0.copyload, ptr noundef nonnull byval(%"class.clang::CodeGen::Address") align 8 %2) #24
  tail call void @_ZN5clang7CodeGen15CodeGenFunction16PopCleanupBlocksENS0_12EHScopeStack15stable_iteratorESt16initializer_listIPPN4llvm5ValueEE(ptr noundef nonnull align 8 dereferenceable(6488) %1, i64 %10, ptr null, i64 0) #24
  ret void
}